target datalayout = "e-m:e-p270:32:32-p271:32:32-p272:64:64-i64:64-i128:128-f80:128-n8:16:32:64-S128"
target triple = "x86_64-pc-linux-gnu"

@PgArchCanRestart.last_pgarch_start_time = internal global i64 0, align 8

; Function Attrs: nounwind uwtable
define dso_local zeroext i1 @PgArchCanRestart() #0 {
  %1 = alloca i1, align 1
  %2 = alloca i64, align 8
  %3 = alloca i32, align 4
  call void @llvm.lifetime.start.p0(i64 8, ptr %2) #14
  %4 = call i64 @time(ptr noundef null) #14
  store i64 %4, ptr %2, align 8
  %5 = load i64, ptr %2, align 8
  %6 = load i64, ptr @PgArchCanRestart.last_pgarch_start_time, align 8
  %7 = sub i64 %5, %6
  %8 = trunc i64 %7 to i32
  %9 = icmp ult i32 %8, 10
  br i1 %9, label %10, label %11

10:                                               ; preds = %0
  store i1 false, ptr %1, align 1
  store i32 1, ptr %3, align 4
  br label %13

11:                                               ; preds = %0
  %12 = load i64, ptr %2, align 8
  store i64 %12, ptr @PgArchCanRestart.last_pgarch_start_time, align 8
  store i1 true, ptr %1, align 1
  store i32 1, ptr %3, align 4
  br label %13

13:                                               ; preds = %11, %10
  call void @llvm.lifetime.end.p0(i64 8, ptr %2) #14
  %14 = load i1, ptr %1, align 1
  ret i1 %14
}