; Function Attrs: nounwind uwtable
define dso_local noundef zeroext i1 @PgArchCanRestart() local_unnamed_addr #0 {
  %1 = tail call i64 @time(ptr noundef null) #19
  %2 = load i64, ptr @PgArchCanRestart.last_pgarch_start_time, align 8
  %3 = sub i64 %1, %2
  %4 = trunc i64 %3 to i32
  %5 = icmp ugt i32 %4, 9
  br i1 %5, label %6, label %7

6:                                                ; preds = %0
  store i64 %1, ptr @PgArchCanRestart.last_pgarch_start_time, align 8
  br label %7

7:                                                ; preds = %0, %6
  ret i1 %5
}